target datalayout = "e-m:e-p270:32:32-p271:32:32-p272:64:64-i64:64-i128:128-f80:128-n8:16:32:64-S128"
target triple = "x86_64-pc-linux-gnu"

%struct._object = type { %union.anon, ptr }
%union.anon = type { i64 }
%struct.methodcallerobject = type { %struct._object, ptr, ptr, ptr, ptr, ptr, ptr }

; Function Attrs: inlinehint nounwind uwtable
define internal ptr @_Py_TYPE(ptr noundef %0) #3 {
  %2 = alloca ptr, align 8
  store ptr %0, ptr %2, align 8, !tbaa !4
  %3 = load ptr, ptr %2, align 8, !tbaa !4
  %4 = getelementptr inbounds nuw %struct._object, ptr %3, i32 0, i32 1
  %5 = load ptr, ptr %4, align 8, !tbaa !38
  ret ptr %5
}

; Function Attrs: nounwind uwtable
define internal i32 @methodcaller_traverse(ptr noundef %0, ptr noundef %1, ptr noundef %2) #0 {
  %4 = alloca i32, align 4
  %5 = alloca ptr, align 8
  %6 = alloca ptr, align 8
  %7 = alloca ptr, align 8
  %8 = alloca i32, align 4
  %9 = alloca i32, align 4
  %10 = alloca i32, align 4
  %11 = alloca i32, align 4
  %12 = alloca i32, align 4
  %13 = alloca i32, align 4
  %14 = alloca i32, align 4
  store ptr %0, ptr %5, align 8, !tbaa !9
  store ptr %1, ptr %6, align 8, !tbaa !9
  store ptr %2, ptr %7, align 8, !tbaa !9
  br label %15

15:                                               ; preds = %3
  %16 = load ptr, ptr %5, align 8, !tbaa !9
  %17 = getelementptr inbounds nuw %struct.methodcallerobject, ptr %16, i32 0, i32 1
  %18 = load ptr, ptr %17, align 8, !tbaa !90
  %19 = icmp ne ptr %18, null
  br i1 %19, label %20, label %35

20:                                               ; preds = %15
  call void @llvm.lifetime.start.p0(i64 4, ptr %8) #7
  %21 = load ptr, ptr %6, align 8, !tbaa !9
  %22 = load ptr, ptr %5, align 8, !tbaa !9
  %23 = getelementptr inbounds nuw %struct.methodcallerobject, ptr %22, i32 0, i32 1
  %24 = load ptr, ptr %23, align 8, !tbaa !90
  %25 = load ptr, ptr %7, align 8, !tbaa !9
  %26 = call i32 %21(ptr noundef %24, ptr noundef %25)
  store i32 %26, ptr %8, align 4, !tbaa !12
  %27 = load i32, ptr %8, align 4, !tbaa !12
  %28 = icmp ne i32 %27, 0
  br i1 %28, label %29, label %31

29:                                               ; preds = %20
  %30 = load i32, ptr %8, align 4, !tbaa !12
  store i32 %30, ptr %4, align 4
  store i32 1, ptr %9, align 4
  br label %32

31:                                               ; preds = %20
  store i32 0, ptr %9, align 4
  br label %32

32:                                               ; preds = %31, %29
  call void @llvm.lifetime.end.p0(i64 4, ptr %8) #7
  %33 = load i32, ptr %9, align 4
  switch i32 %33, label %147 [
    i32 0, label %34
    i32 1, label %145
  ]

34:                                               ; preds = %32
  br label %35

35:                                               ; preds = %34, %15
  br label %36

36:                                               ; preds = %35
  br label %37

37:                                               ; preds = %36
  %38 = load ptr, ptr %5, align 8, !tbaa !9
  %39 = getelementptr inbounds nuw %struct.methodcallerobject, ptr %38, i32 0, i32 2
  %40 = load ptr, ptr %39, align 8, !tbaa !92
  %41 = icmp ne ptr %40, null
  br i1 %41, label %42, label %57

42:                                               ; preds = %37
  call void @llvm.lifetime.start.p0(i64 4, ptr %10) #7
  %43 = load ptr, ptr %6, align 8, !tbaa !9
  %44 = load ptr, ptr %5, align 8, !tbaa !9
  %45 = getelementptr inbounds nuw %struct.methodcallerobject, ptr %44, i32 0, i32 2
  %46 = load ptr, ptr %45, align 8, !tbaa !92
  %47 = load ptr, ptr %7, align 8, !tbaa !9
  %48 = call i32 %43(ptr noundef %46, ptr noundef %47)
  store i32 %48, ptr %10, align 4, !tbaa !12
  %49 = load i32, ptr %10, align 4, !tbaa !12
  %50 = icmp ne i32 %49, 0
  br i1 %50, label %51, label %53

51:                                               ; preds = %42
  %52 = load i32, ptr %10, align 4, !tbaa !12
  store i32 %52, ptr %4, align 4
  store i32 1, ptr %9, align 4
  br label %54

53:                                               ; preds = %42
  store i32 0, ptr %9, align 4
  br label %54

54:                                               ; preds = %53, %51
  call void @llvm.lifetime.end.p0(i64 4, ptr %10) #7
  %55 = load i32, ptr %9, align 4
  switch i32 %55, label %147 [
    i32 0, label %56
    i32 1, label %145
  ]

56:                                               ; preds = %54
  br label %57

57:                                               ; preds = %56, %37
  br label %58

58:                                               ; preds = %57
  br label %59

59:                                               ; preds = %58
  %60 = load ptr, ptr %5, align 8, !tbaa !9
  %61 = getelementptr inbounds nuw %struct.methodcallerobject, ptr %60, i32 0, i32 3
  %62 = load ptr, ptr %61, align 8, !tbaa !93
  %63 = icmp ne ptr %62, null
  br i1 %63, label %64, label %79

64:                                               ; preds = %59
  call void @llvm.lifetime.start.p0(i64 4, ptr %11) #7
  %65 = load ptr, ptr %6, align 8, !tbaa !9
  %66 = load ptr, ptr %5, align 8, !tbaa !9
  %67 = getelementptr inbounds nuw %struct.methodcallerobject, ptr %66, i32 0, i32 3
  %68 = load ptr, ptr %67, align 8, !tbaa !93
  %69 = load ptr, ptr %7, align 8, !tbaa !9
  %70 = call i32 %65(ptr noundef %68, ptr noundef %69)
  store i32 %70, ptr %11, align 4, !tbaa !12
  %71 = load i32, ptr %11, align 4, !tbaa !12
  %72 = icmp ne i32 %71, 0
  br i1 %72, label %73, label %75

73:                                               ; preds = %64
  %74 = load i32, ptr %11, align 4, !tbaa !12
  store i32 %74, ptr %4, align 4
  store i32 1, ptr %9, align 4
  br label %76

75:                                               ; preds = %64
  store i32 0, ptr %9, align 4
  br label %76

76:                                               ; preds = %75, %73
  call void @llvm.lifetime.end.p0(i64 4, ptr %11) #7
  %77 = load i32, ptr %9, align 4
  switch i32 %77, label %147 [
    i32 0, label %78
    i32 1, label %145
  ]

78:                                               ; preds = %76
  br label %79

79:                                               ; preds = %78, %59
  br label %80

80:                                               ; preds = %79
  br label %81

81:                                               ; preds = %80
  %82 = load ptr, ptr %5, align 8, !tbaa !9
  %83 = getelementptr inbounds nuw %struct.methodcallerobject, ptr %82, i32 0, i32 4
  %84 = load ptr, ptr %83, align 8, !tbaa !94
  %85 = icmp ne ptr %84, null
  br i1 %85, label %86, label %101

86:                                               ; preds = %81
  call void @llvm.lifetime.start.p0(i64 4, ptr %12) #7
  %87 = load ptr, ptr %6, align 8, !tbaa !9
  %88 = load ptr, ptr %5, align 8, !tbaa !9
  %89 = getelementptr inbounds nuw %struct.methodcallerobject, ptr %88, i32 0, i32 4
  %90 = load ptr, ptr %89, align 8, !tbaa !94
  %91 = load ptr, ptr %7, align 8, !tbaa !9
  %92 = call i32 %87(ptr noundef %90, ptr noundef %91)
  store i32 %92, ptr %12, align 4, !tbaa !12
  %93 = load i32, ptr %12, align 4, !tbaa !12
  %94 = icmp ne i32 %93, 0
  br i1 %94, label %95, label %97

95:                                               ; preds = %86
  %96 = load i32, ptr %12, align 4, !tbaa !12
  store i32 %96, ptr %4, align 4
  store i32 1, ptr %9, align 4
  br label %98

97:                                               ; preds = %86
  store i32 0, ptr %9, align 4
  br label %98

98:                                               ; preds = %97, %95
  call void @llvm.lifetime.end.p0(i64 4, ptr %12) #7
  %99 = load i32, ptr %9, align 4
  switch i32 %99, label %147 [
    i32 0, label %100
    i32 1, label %145
  ]

100:                                              ; preds = %98
  br label %101

101:                                              ; preds = %100, %81
  br label %102

102:                                              ; preds = %101
  br label %103

103:                                              ; preds = %102
  %104 = load ptr, ptr %5, align 8, !tbaa !9
  %105 = getelementptr inbounds nuw %struct.methodcallerobject, ptr %104, i32 0, i32 5
  %106 = load ptr, ptr %105, align 8, !tbaa !95
  %107 = icmp ne ptr %106, null
  br i1 %107, label %108, label %123

108:                                              ; preds = %103
  call void @llvm.lifetime.start.p0(i64 4, ptr %13) #7
  %109 = load ptr, ptr %6, align 8, !tbaa !9
  %110 = load ptr, ptr %5, align 8, !tbaa !9
  %111 = getelementptr inbounds nuw %struct.methodcallerobject, ptr %110, i32 0, i32 5
  %112 = load ptr, ptr %111, align 8, !tbaa !95
  %113 = load ptr, ptr %7, align 8, !tbaa !9
  %114 = call i32 %109(ptr noundef %112, ptr noundef %113)
  store i32 %114, ptr %13, align 4, !tbaa !12
  %115 = load i32, ptr %13, align 4, !tbaa !12
  %116 = icmp ne i32 %115, 0
  br i1 %116, label %117, label %119

117:                                              ; preds = %108
  %118 = load i32, ptr %13, align 4, !tbaa !12
  store i32 %118, ptr %4, align 4
  store i32 1, ptr %9, align 4
  br label %120

119:                                              ; preds = %108
  store i32 0, ptr %9, align 4
  br label %120

120:                                              ; preds = %119, %117
  call void @llvm.lifetime.end.p0(i64 4, ptr %13) #7
  %121 = load i32, ptr %9, align 4
  switch i32 %121, label %147 [
    i32 0, label %122
    i32 1, label %145
  ]

122:                                              ; preds = %120
  br label %123

123:                                              ; preds = %122, %103
  br label %124

124:                                              ; preds = %123
  br label %125

125:                                              ; preds = %124
  %126 = load ptr, ptr %5, align 8, !tbaa !9
  %127 = call ptr @_Py_TYPE(ptr noundef %126)
  %128 = icmp ne ptr %127, null
  br i1 %128, label %129, label %143

129:                                              ; preds = %125
  call void @llvm.lifetime.start.p0(i64 4, ptr %14) #7
  %130 = load ptr, ptr %6, align 8, !tbaa !9
  %131 = load ptr, ptr %5, align 8, !tbaa !9
  %132 = call ptr @_Py_TYPE(ptr noundef %131)
  %133 = load ptr, ptr %7, align 8, !tbaa !9
  %134 = call i32 %130(ptr noundef %132, ptr noundef %133)
  store i32 %134, ptr %14, align 4, !tbaa !12
  %135 = load i32, ptr %14, align 4, !tbaa !12
  %136 = icmp ne i32 %135, 0
  br i1 %136, label %137, label %139

137:                                              ; preds = %129
  %138 = load i32, ptr %14, align 4, !tbaa !12
  store i32 %138, ptr %4, align 4
  store i32 1, ptr %9, align 4
  br label %140

139:                                              ; preds = %129
  store i32 0, ptr %9, align 4
  br label %140

140:                                              ; preds = %139, %137
  call void @llvm.lifetime.end.p0(i64 4, ptr %14) #7
  %141 = load i32, ptr %9, align 4
  switch i32 %141, label %147 [
    i32 0, label %142
    i32 1, label %145
  ]

142:                                              ; preds = %140
  br label %143

143:                                              ; preds = %142, %125
  br label %144

144:                                              ; preds = %143
  store i32 0, ptr %4, align 4
  br label %145

145:                                              ; preds = %144, %140, %120, %98, %76, %54, %32
  %146 = load i32, ptr %4, align 4
  ret i32 %146

147:                                              ; preds = %140, %120, %98, %76, %54, %32
  unreachable
}