; Function Attrs: nounwind uwtable
define internal i32 @methodcaller_traverse(ptr noundef readonly captures(none) %0, ptr noundef readonly captures(none) %1, ptr noundef %2) #0 {
  %4 = getelementptr inbounds nuw i8, ptr %0, i64 16
  %5 = load ptr, ptr %4, align 8, !tbaa !83
  %.not = icmp eq ptr %5, null
  br i1 %.not, label %8, label %6

6:                                                ; preds = %3
  %7 = tail call i32 %1(ptr noundef nonnull %5, ptr noundef %2) #7
  %.not57.not = icmp eq i32 %7, 0
  br i1 %.not57.not, label %8, label %33

8:                                                ; preds = %6, %3
  %9 = getelementptr inbounds nuw i8, ptr %0, i64 24
  %10 = load ptr, ptr %9, align 8, !tbaa !85
  %.not58 = icmp eq ptr %10, null
  br i1 %.not58, label %13, label %11

11:                                               ; preds = %8
  %12 = tail call i32 %1(ptr noundef nonnull %10, ptr noundef %2) #7
  %.not59.not = icmp eq i32 %12, 0
  br i1 %.not59.not, label %13, label %33

13:                                               ; preds = %11, %8
  %14 = getelementptr inbounds nuw i8, ptr %0, i64 32
  %15 = load ptr, ptr %14, align 8, !tbaa !86
  %.not60 = icmp eq ptr %15, null
  br i1 %.not60, label %18, label %16

16:                                               ; preds = %13
  %17 = tail call i32 %1(ptr noundef nonnull %15, ptr noundef %2) #7
  %.not61.not = icmp eq i32 %17, 0
  br i1 %.not61.not, label %18, label %33

18:                                               ; preds = %16, %13
  %19 = getelementptr inbounds nuw i8, ptr %0, i64 40
  %20 = load ptr, ptr %19, align 8, !tbaa !87
  %.not62 = icmp eq ptr %20, null
  br i1 %.not62, label %23, label %21

21:                                               ; preds = %18
  %22 = tail call i32 %1(ptr noundef nonnull %20, ptr noundef %2) #7
  %.not63.not = icmp eq i32 %22, 0
  br i1 %.not63.not, label %23, label %33

23:                                               ; preds = %21, %18
  %24 = getelementptr inbounds nuw i8, ptr %0, i64 48
  %25 = load ptr, ptr %24, align 8, !tbaa !88
  %.not64 = icmp eq ptr %25, null
  br i1 %.not64, label %28, label %26

26:                                               ; preds = %23
  %27 = tail call i32 %1(ptr noundef nonnull %25, ptr noundef %2) #7
  %.not65.not = icmp eq i32 %27, 0
  br i1 %.not65.not, label %28, label %33

28:                                               ; preds = %26, %23
  %29 = getelementptr i8, ptr %0, i64 8
  %.val78 = load ptr, ptr %29, align 8, !tbaa !19
  %.not66 = icmp eq ptr %.val78, null
  br i1 %.not66, label %32, label %30

30:                                               ; preds = %28
  %31 = tail call i32 %1(ptr noundef nonnull %.val78, ptr noundef %2) #7
  %.not67.not = icmp eq i32 %31, 0
  br i1 %.not67.not, label %32, label %33

32:                                               ; preds = %30, %28
  br label %33

33:                                               ; preds = %30, %26, %21, %16, %11, %6, %32
  %.1 = phi i32 [ %7, %6 ], [ %12, %11 ], [ %17, %16 ], [ %22, %21 ], [ %27, %26 ], [ %31, %30 ], [ 0, %32 ]
  ret i32 %.1
}